((lp0
(I962
I468
tp1
a(I351
I457
tp2
a(I661
I481
tp3
a(I28
I594
tp4
a(I1093
I444
tp5
a(I769
I511
tp6
a(I206
I427
tp7
a(lp8
(I1600
I400
tp9
a(I400
I400
tp10
a(I1000
I650
tp11
a(I300
I1500
tp12
a(I0
I2000
tp13
a(I1200
I910
tp14
a(I0
I0
tp15
atp16
.