((lp0
(I666
I450
tp1
a(I576
I592
tp2
a(I1228
I639
tp3
a(I567
I705
tp4
a(I538
I455
tp5
a(I336
I600
tp6
a(lp7
(I334
I83
tp8
a(I192
I436
tp9
a(I334
I542
tp10
a(I163
I543
tp11
a(I257
I84
tp12
a(I123
I425
tp13
atp14
.