(dp0
S'roi'
p1
(lp2
sS'colorMin'
p3
cnumpy.core.multiarray
_reconstruct
p4
(cnumpy
ndarray
p5
(I0
tp6
S'b'
p7
tp8
Rp9
(I1
(L3L
tp10
cnumpy
dtype
p11
(S'i4'
p12
I0
I1
tp13
Rp14
(I3
S'<'
p15
NNNI-1
I-1
I0
tp16
bI00
S'\x16\x00\x00\x00\xc8\x00\x00\x00w\x00\x00\x00'
p17
tp18
bsS'upstairs'
p19
(lp20
sS'matchMax'
p21
I8
sS'colorMax'
p22
g4
(g5
(I0
tp23
g7
tp24
Rp25
(I1
(L3L
tp26
g14
I00
S'\x1a\x00\x00\x00\xff\x00\x00\x00\xff\x00\x00\x00'
p27
tp28
bs.