(dp0
S'roi'
p1
(lp2
sS'colorMin'
p3
cnumpy.core.multiarray
_reconstruct
p4
(cnumpy
ndarray
p5
(I0
tp6
S'b'
p7
tp8
Rp9
(I1
(L3L
tp10
cnumpy
dtype
p11
(S'i4'
p12
I0
I1
tp13
Rp14
(I3
S'<'
p15
NNNI-1
I-1
I0
tp16
bI00
S',\x00\x00\x00c\x00\x00\x00]\x00\x00\x00'
p17
tp18
bsS'colorMax'
p19
g4
(g5
(I0
tp20
g7
tp21
Rp22
(I1
(L3L
tp23
g14
I00
S'A\x00\x00\x00\xff\x00\x00\x00\xff\x00\x00\x00'
p24
tp25
bsS'matchMax'
p26
I248
sS'ratioMax'
p27
F0.9545454545454546
sS'ratioMin'
p28
F0.4090909090909091
s.