(dp0
S'roi'
p1
(lp2
(I742
I309
tp3
asS'colorMin'
p4
cnumpy.core.multiarray
_reconstruct
p5
(cnumpy
ndarray
p6
(I0
tp7
S'b'
p8
tp9
Rp10
(I1
(L3L
tp11
cnumpy
dtype
p12
(S'i4'
p13
I0
I1
tp14
Rp15
(I3
S'<'
p16
NNNI-1
I-1
I0
tp17
bI00
S'\x89\x00\x00\x00\x00\x00\x00\x00\x00\x00\x00\x00'
p18
tp19
bsS'upstairs'
p20
(lp21
sS'matchMax'
p22
I23
sS'colorMax'
p23
g5
(g6
(I0
tp24
g8
tp25
Rp26
(I1
(L3L
tp27
g15
I00
S'\xb3\x00\x00\x00\xff\x00\x00\x00\xff\x00\x00\x00'
p28
tp29
bs.